; Function Attrs: nofree norecurse nosync nounwind memory(argmem: readwrite) uwtable
define internal void @h264_v_loop_filter_luma_14_c(ptr noundef captures(none) %0, i64 noundef %1, i32 noundef %2, i32 noundef %3, ptr noundef readonly captures(none) %4) #1 {
  %6 = ashr i64 %1, 1
  %7 = shl i32 %2, 6
  %8 = shl i32 %3, 6
  %9 = sub nsw i64 0, %6
  %.idx.i = mul nsw i64 %6, -4
  %.idx115.i = mul nsw i64 %6, -6
  %10 = and i64 %1, -2
  br label %11

11:                                               ; preds = %5, %.loopexit
  %indvars.iv = phi i64 [ 0, %5 ], [ %indvars.iv.next, %.loopexit ]
  %.099.i7 = phi ptr [ %0, %5 ], [ %.1100.i, %.loopexit ]
  %12 = getelementptr inbounds nuw i8, ptr %4, i64 %indvars.iv
  %13 = load i8, ptr %12, align 1, !tbaa !42
  %14 = sext i8 %13 to i32
  %15 = shl nsw i32 %14, 6
  %16 = icmp slt i8 %13, 0
  br i1 %16, label %19, label %.preheader

.preheader:                                       ; preds = %11
  %.not.i = icmp eq i8 %13, 0
  %17 = sub nsw i32 0, %15
  %18 = or disjoint i32 %15, 1
  br label %21

19:                                               ; preds = %11
  %20 = getelementptr inbounds nuw i8, ptr %.099.i7, i64 8
  br label %.loopexit

21:                                               ; preds = %.preheader, %98
  %.2.i5 = phi ptr [ %.099.i7, %.preheader ], [ %99, %98 ]
  %.0102.i4 = phi i32 [ 0, %.preheader ], [ %100, %98 ]
  %22 = getelementptr inbounds i16, ptr %.2.i5, i64 %9
  %23 = load i16, ptr %22, align 2, !tbaa !37
  %24 = zext i16 %23 to i32
  %25 = getelementptr inbounds i8, ptr %.2.i5, i64 %.idx.i
  %26 = load i16, ptr %25, align 2, !tbaa !37
  %27 = zext i16 %26 to i32
  %28 = getelementptr inbounds i8, ptr %.2.i5, i64 %.idx115.i
  %29 = load i16, ptr %28, align 2, !tbaa !37
  %30 = zext i16 %29 to i32
  %31 = load i16, ptr %.2.i5, align 2, !tbaa !37
  %32 = zext i16 %31 to i32
  %33 = getelementptr inbounds i16, ptr %.2.i5, i64 %6
  %34 = load i16, ptr %33, align 2, !tbaa !37
  %35 = zext i16 %34 to i32
  %36 = getelementptr inbounds i16, ptr %.2.i5, i64 %10
  %37 = load i16, ptr %36, align 2, !tbaa !37
  %38 = zext i16 %37 to i32
  %39 = sub nsw i32 %24, %32
  %40 = tail call i32 @llvm.abs.i32(i32 %39, i1 true)
  %41 = icmp slt i32 %40, %7
  br i1 %41, label %42, label %98

42:                                               ; preds = %21
  %43 = sub nsw i32 %27, %24
  %44 = tail call i32 @llvm.abs.i32(i32 %43, i1 true)
  %45 = icmp slt i32 %44, %8
  br i1 %45, label %46, label %98

46:                                               ; preds = %42
  %47 = sub nsw i32 %35, %32
  %48 = tail call i32 @llvm.abs.i32(i32 %47, i1 true)
  %49 = icmp samesign ult i32 %48, %8
  br i1 %49, label %50, label %98

50:                                               ; preds = %46
  %51 = sub nsw i32 %30, %24
  %52 = tail call i32 @llvm.abs.i32(i32 %51, i1 true)
  %53 = icmp samesign uge i32 %52, %8
  %brmerge = or i1 %53, %.not.i
  %.mux = select i1 %53, i32 %15, i32 %18
  br i1 %brmerge, label %64, label %54

54:                                               ; preds = %50
  %55 = add nuw nsw i32 %24, 1
  %56 = add nuw nsw i32 %55, %32
  %57 = lshr i32 %56, 1
  %58 = add nuw nsw i32 %57, %30
  %59 = lshr i32 %58, 1
  %60 = sub nsw i32 %59, %27
  %61 = icmp slt i32 %60, %17
  %..i123.i = tail call i32 @llvm.smin.i32(i32 %60, i32 %15)
  %.0.i124.i = select i1 %61, i32 %17, i32 %..i123.i
  %62 = trunc i32 %.0.i124.i to i16
  %63 = add i16 %26, %62
  store i16 %63, ptr %25, align 2, !tbaa !37
  br label %64

64:                                               ; preds = %50, %54
  %.0.i = phi i32 [ %.mux, %50 ], [ %18, %54 ]
  %65 = sub nsw i32 %38, %32
  %66 = tail call i32 @llvm.abs.i32(i32 %65, i1 true)
  %67 = icmp samesign ult i32 %66, %8
  br i1 %67, label %68, label %81

68:                                               ; preds = %64
  br i1 %.not.i, label %79, label %69

69:                                               ; preds = %68
  %70 = add nuw nsw i32 %24, 1
  %71 = add nuw nsw i32 %70, %32
  %72 = lshr i32 %71, 1
  %73 = add nuw nsw i32 %72, %38
  %74 = lshr i32 %73, 1
  %75 = sub nsw i32 %74, %35
  %76 = icmp slt i32 %75, %17
  %..i121.i = tail call i32 @llvm.smin.i32(i32 %75, i32 %15)
  %.0.i122.i = select i1 %76, i32 %17, i32 %..i121.i
  %77 = trunc i32 %.0.i122.i to i16
  %78 = add i16 %34, %77
  store i16 %78, ptr %33, align 2, !tbaa !37
  br label %79

79:                                               ; preds = %69, %68
  %80 = add nuw nsw i32 %.0.i, 1
  br label %81

81:                                               ; preds = %79, %64
  %.1.i = phi i32 [ %80, %79 ], [ %.0.i, %64 ]
  %82 = sub nsw i32 %32, %24
  %83 = shl nsw i32 %82, 2
  %84 = add nuw nsw i32 %27, 4
  %85 = sub nsw i32 %84, %35
  %86 = add nsw i32 %85, %83
  %87 = ashr i32 %86, 3
  %88 = sub nsw i32 0, %.1.i
  %89 = icmp slt i32 %87, %88
  %..i.i = tail call i32 @llvm.smin.i32(i32 %87, i32 %.1.i)
  %.0.i120.i = select i1 %89, i32 %88, i32 %..i.i
  %90 = add nsw i32 %.0.i120.i, %24
  %91 = tail call i32 @llvm.smax.i32(i32 %90, i32 0)
  %92 = tail call i32 @llvm.umin.i32(i32 %91, i32 16383)
  %93 = trunc nuw nsw i32 %92 to i16
  store i16 %93, ptr %22, align 2, !tbaa !37
  %94 = sub nsw i32 %32, %.0.i120.i
  %95 = tail call i32 @llvm.smax.i32(i32 %94, i32 0)
  %96 = tail call i32 @llvm.umin.i32(i32 %95, i32 16383)
  %97 = trunc nuw nsw i32 %96 to i16
  store i16 %97, ptr %.2.i5, align 2, !tbaa !37
  br label %98

98:                                               ; preds = %81, %46, %42, %21
  %99 = getelementptr inbounds nuw i8, ptr %.2.i5, i64 2
  %100 = add nuw nsw i32 %.0102.i4, 1
  %exitcond.not = icmp eq i32 %100, 4
  br i1 %exitcond.not, label %.loopexit, label %21, !llvm.loop !95

.loopexit:                                        ; preds = %98, %19
  %.1100.i = phi ptr [ %20, %19 ], [ %99, %98 ]
  %indvars.iv.next = add nuw nsw i64 %indvars.iv, 1
  %exitcond9.not = icmp eq i64 %indvars.iv.next, 4
  br i1 %exitcond9.not, label %h264_loop_filter_luma_14_c.exit, label %11, !llvm.loop !96

h264_loop_filter_luma_14_c.exit:                  ; preds = %.loopexit
  ret void
}